; Function Attrs: null_pointer_is_valid sspstrong uwtable
define internal fastcc void @dissect_typecode_string_param(ptr noundef %0, ptr noundef %1, ptr noundef captures(none) %2, i1 noundef zeroext %3, i32 noundef %4, i32 noundef %5, ptr noundef writeonly captures(none) initializes((0, 8)) %6) unnamed_addr #0 {
  %.promoted.i.i = load i32, ptr %2, align 4
  %8 = add i32 %.promoted.i.i, %4
  %9 = and i32 %8, 3
  %.not9.i.i = icmp eq i32 %9, 0
  br i1 %.not9.i.i, label %11, label %.lr.ph.preheader.i.i

.lr.ph.preheader.i.i:                             ; preds = %7
  %10 = or i32 %8, -4
  %sub.i = sub i32 %.promoted.i.i, %10
  store i32 %sub.i, ptr %2, align 4
  br label %11

11:                                               ; preds = %.lr.ph.preheader.i.i, %7
  %.lcssa.i.i = phi i32 [ %sub.i, %.lr.ph.preheader.i.i ], [ %.promoted.i.i, %7 ]
  br i1 %3, label %12, label %14

12:                                               ; preds = %11
  %13 = tail call i32 @tvb_get_ntohl(ptr noundef %0, i32 noundef %.lcssa.i.i)
  br label %get_CDR_string.exit

14:                                               ; preds = %11
  %15 = tail call i32 @tvb_get_letohl(ptr noundef %0, i32 noundef %.lcssa.i.i)
  br label %get_CDR_string.exit

get_CDR_string.exit:                              ; preds = %12, %14
  %16 = phi i32 [ %13, %12 ], [ %15, %14 ]
  %17 = load i32, ptr %2, align 4
  %18 = add i32 %17, 4
  store i32 %18, ptr %2, align 4
  %19 = tail call i32 @tvb_reported_length_remaining(ptr noundef %0, i32 noundef %17)
  %spec.select.i = tail call i32 @llvm.umin.i32(i32 %16, i32 %19)
  %20 = tail call ptr @wmem_packet_scope()
  %21 = load i32, ptr %2, align 4
  %22 = tail call ptr @tvb_get_string_enc(ptr noundef %20, ptr noundef %0, i32 noundef %21, i32 noundef %spec.select.i, i32 noundef 10)
  %23 = load i32, ptr %2, align 4
  %24 = add i32 %23, %spec.select.i
  store i32 %24, ptr %2, align 4
  %25 = load i32, ptr @hf_giop_string_length, align 4
  %26 = add i32 %23, -4
  %27 = tail call ptr @proto_tree_add_uint(ptr noundef %1, i32 noundef %25, ptr noundef %0, i32 noundef %26, i32 noundef 4, i32 noundef %spec.select.i)
  %.not = icmp eq i32 %spec.select.i, 0
  br i1 %.not, label %32, label %28

28:                                               ; preds = %get_CDR_string.exit
  %29 = load i32, ptr %2, align 4
  %30 = sub i32 %29, %spec.select.i
  %31 = tail call ptr @proto_tree_add_string(ptr noundef %1, i32 noundef %5, ptr noundef %0, i32 noundef %30, i32 noundef %spec.select.i, ptr noundef %22)
  br label %32

32:                                               ; preds = %28, %get_CDR_string.exit
  store ptr %22, ptr %6, align 8
  ret void
}